target datalayout = "e-m:e-p270:32:32-p271:32:32-p272:64:64-i64:64-i128:128-f80:128-n8:16:32:64-S128"
target triple = "x86_64-pc-linux-gnu"

; Function Attrs: nounwind uwtable
define internal i32 @lj_cf_newproxy(ptr noundef %0) #3 {
  %2 = alloca i32, align 4
  %3 = alloca ptr, align 8
  %4 = alloca i32, align 4
  store ptr %0, ptr %3, align 8, !tbaa !4
  %5 = load ptr, ptr %3, align 8, !tbaa !4
  call void @lua_settop(ptr noundef %5, i32 noundef 1)
  %6 = load ptr, ptr %3, align 8, !tbaa !4
  %7 = call ptr @lua_newuserdata(ptr noundef %6, i64 noundef 0)
  %8 = load ptr, ptr %3, align 8, !tbaa !4
  %9 = call i32 @lua_toboolean(ptr noundef %8, i32 noundef 1)
  %10 = icmp eq i32 %9, 0
  br i1 %10, label %11, label %12

11:                                               ; preds = %1
  store i32 1, ptr %2, align 4
  br label %42

12:                                               ; preds = %1
  %13 = load ptr, ptr %3, align 8, !tbaa !4
  %14 = call i32 @lua_type(ptr noundef %13, i32 noundef 1)
  %15 = icmp eq i32 %14, 1
  br i1 %15, label %16, label %21

16:                                               ; preds = %12
  %17 = load ptr, ptr %3, align 8, !tbaa !4
  call void @lua_createtable(ptr noundef %17, i32 noundef 0, i32 noundef 0)
  %18 = load ptr, ptr %3, align 8, !tbaa !4
  call void @lua_pushvalue(ptr noundef %18, i32 noundef -1)
  %19 = load ptr, ptr %3, align 8, !tbaa !4
  call void @lua_pushboolean(ptr noundef %19, i32 noundef 1)
  %20 = load ptr, ptr %3, align 8, !tbaa !4
  call void @lua_rawset(ptr noundef %20, i32 noundef -10003)
  br label %38

21:                                               ; preds = %12
  call void @llvm.lifetime.start.p0(i64 4, ptr %4) #11
  store i32 0, ptr %4, align 4, !tbaa !29
  %22 = load ptr, ptr %3, align 8, !tbaa !4
  %23 = call i32 @lua_getmetatable(ptr noundef %22, i32 noundef 1)
  %24 = icmp ne i32 %23, 0
  br i1 %24, label %25, label %30

25:                                               ; preds = %21
  %26 = load ptr, ptr %3, align 8, !tbaa !4
  call void @lua_rawget(ptr noundef %26, i32 noundef -10003)
  %27 = load ptr, ptr %3, align 8, !tbaa !4
  %28 = call i32 @lua_toboolean(ptr noundef %27, i32 noundef -1)
  store i32 %28, ptr %4, align 4, !tbaa !29
  %29 = load ptr, ptr %3, align 8, !tbaa !4
  call void @lua_settop(ptr noundef %29, i32 noundef -2)
  br label %30

30:                                               ; preds = %25, %21
  %31 = load i32, ptr %4, align 4, !tbaa !29
  %32 = icmp ne i32 %31, 0
  br i1 %32, label %35, label %33

33:                                               ; preds = %30
  %34 = load ptr, ptr %3, align 8, !tbaa !4
  call void @lj_err_arg(ptr noundef %34, i32 noundef 1, i32 noundef 687) #10
  unreachable

35:                                               ; preds = %30
  %36 = load ptr, ptr %3, align 8, !tbaa !4
  %37 = call i32 @lua_getmetatable(ptr noundef %36, i32 noundef 1)
  call void @llvm.lifetime.end.p0(i64 4, ptr %4) #11
  br label %38

38:                                               ; preds = %35, %16
  br label %39

39:                                               ; preds = %38
  %40 = load ptr, ptr %3, align 8, !tbaa !4
  %41 = call i32 @lua_setmetatable(ptr noundef %40, i32 noundef 2)
  store i32 1, ptr %2, align 4
  br label %42

42:                                               ; preds = %39, %11
  %43 = load i32, ptr %2, align 4
  ret i32 %43
}