; Function Attrs: nounwind uwtable
define internal noundef i32 @lj_cf_newproxy(ptr noundef %0) #2 {
  tail call void @lua_settop(ptr noundef %0, i32 noundef 1) #11
  %2 = tail call ptr @lua_newuserdata(ptr noundef %0, i64 noundef 0) #11
  %3 = tail call i32 @lua_toboolean(ptr noundef %0, i32 noundef 1) #11
  %4 = icmp eq i32 %3, 0
  br i1 %4, label %18, label %5

5:                                                ; preds = %1
  %6 = tail call i32 @lua_type(ptr noundef %0, i32 noundef 1) #11
  %7 = icmp eq i32 %6, 1
  br i1 %7, label %8, label %9

8:                                                ; preds = %5
  tail call void @lua_createtable(ptr noundef %0, i32 noundef 0, i32 noundef 0) #11
  tail call void @lua_pushvalue(ptr noundef %0, i32 noundef -1) #11
  tail call void @lua_pushboolean(ptr noundef %0, i32 noundef 1) #11
  tail call void @lua_rawset(ptr noundef %0, i32 noundef -10003) #11
  br label %16

9:                                                ; preds = %5
  %10 = tail call i32 @lua_getmetatable(ptr noundef %0, i32 noundef 1) #11
  %.not = icmp eq i32 %10, 0
  br i1 %.not, label %.critedge, label %11

11:                                               ; preds = %9
  tail call void @lua_rawget(ptr noundef %0, i32 noundef -10003) #11
  %12 = tail call i32 @lua_toboolean(ptr noundef %0, i32 noundef -1) #11
  tail call void @lua_settop(ptr noundef %0, i32 noundef -2) #11
  %13 = icmp eq i32 %12, 0
  br i1 %13, label %.critedge, label %14

.critedge:                                        ; preds = %9, %11
  tail call void @lj_err_arg(ptr noundef %0, i32 noundef 1, i32 noundef 687) #10
  unreachable

14:                                               ; preds = %11
  %15 = tail call i32 @lua_getmetatable(ptr noundef %0, i32 noundef 1) #11
  br label %16

16:                                               ; preds = %8, %14
  %17 = tail call i32 @lua_setmetatable(ptr noundef %0, i32 noundef 2) #11
  br label %18

18:                                               ; preds = %1, %16
  ret i32 1
}